; Function Attrs: mustprogress uwtable
define hidden void @_ZN12mpbq_manager3mulERK4mpbqS2_RS0_(ptr noundef nonnull readonly align 8 captures(none) dereferenceable(208) %0, ptr noundef nonnull align 8 dereferenceable(20) %1, ptr noundef nonnull align 8 dereferenceable(20) %2, ptr noundef nonnull align 8 dereferenceable(20) %3) local_unnamed_addr #3 align 2 {
  %5 = load ptr, ptr %0, align 8, !tbaa !26
  tail call void @_ZN11mpz_managerILb0EE3mulERK3mpzS3_RS1_(ptr noundef nonnull align 8 dereferenceable(600) %5, ptr noundef nonnull align 8 dereferenceable(16) %1, ptr noundef nonnull align 8 dereferenceable(16) %2, ptr noundef nonnull align 8 dereferenceable(16) %3)
  %6 = getelementptr inbounds nuw i8, ptr %1, i64 16
  %7 = load i32, ptr %6, align 8, !tbaa !13
  %8 = getelementptr inbounds nuw i8, ptr %2, i64 16
  %9 = load i32, ptr %8, align 8, !tbaa !13
  %10 = add i32 %9, %7
  %11 = getelementptr inbounds nuw i8, ptr %3, i64 16
  store i32 %10, ptr %11, align 8, !tbaa !13
  %12 = load i32, ptr %6, align 8, !tbaa !13
  %13 = icmp ne i32 %12, 0
  %14 = load i32, ptr %8, align 8
  %15 = icmp ne i32 %14, 0
  %or.cond.not13 = select i1 %13, i1 %15, i1 false
  %16 = icmp eq i32 %10, 0
  %or.cond11 = select i1 %or.cond.not13, i1 true, i1 %16
  br i1 %or.cond11, label %_ZN12mpbq_manager9normalizeER4mpbq.exit, label %17

17:                                               ; preds = %4
  %18 = load i32, ptr %3, align 8, !tbaa !3
  %19 = icmp eq i32 %18, 0
  br i1 %19, label %.sink.split.i, label %20

20:                                               ; preds = %17
  %21 = load ptr, ptr %0, align 8, !tbaa !26
  %22 = tail call noundef i32 @_ZN11mpz_managerILb0EE21power_of_two_multipleERK3mpz(ptr noundef nonnull align 8 dereferenceable(600) %21, ptr noundef nonnull align 8 dereferenceable(20) %3)
  %23 = load i32, ptr %11, align 8, !tbaa !13
  %spec.select.i = tail call i32 @llvm.umin.i32(i32 %22, i32 %23)
  %24 = load ptr, ptr %0, align 8, !tbaa !26
  tail call void @_ZN11mpz_managerILb0EE13machine_div2kER3mpzj(ptr noundef nonnull align 8 dereferenceable(600) %24, ptr noundef nonnull align 8 dereferenceable(20) %3, i32 noundef %spec.select.i)
  %25 = load i32, ptr %11, align 8, !tbaa !13
  %26 = sub i32 %25, %spec.select.i
  br label %.sink.split.i

.sink.split.i:                                    ; preds = %20, %17
  %.sink.i = phi i32 [ %26, %20 ], [ 0, %17 ]
  store i32 %.sink.i, ptr %11, align 8, !tbaa !13
  br label %_ZN12mpbq_manager9normalizeER4mpbq.exit

_ZN12mpbq_manager9normalizeER4mpbq.exit:          ; preds = %.sink.split.i, %4
  ret void
}